; Function Attrs: mustprogress nofree norecurse nosync nounwind sspstrong willreturn memory(read, inaccessiblemem: none) uwtable
define internal range(i64 1, 0) i64 @struct_enum_size(i64 noundef %0, i64 %1, i64 %2) #10 {
  %4 = inttoptr i64 %0 to ptr
  %5 = load i64, ptr %4, align 8, !tbaa !11
  %6 = and i64 %5, 1040384
  %.not.i.i = icmp eq i64 %6, 0
  br i1 %.not.i.i, label %10, label %7

7:                                                ; preds = %3
  %8 = lshr i64 %5, 13
  %9 = and i64 %8, 127
  br label %rb_struct_size.exit

10:                                               ; preds = %3
  %11 = getelementptr inbounds nuw i8, ptr %4, i64 16
  %12 = load i64, ptr %11, align 8, !tbaa !13
  br label %rb_struct_size.exit

rb_struct_size.exit:                              ; preds = %7, %10
  %.0.i.i = phi i64 [ %9, %7 ], [ %12, %10 ]
  %13 = shl i64 %.0.i.i, 1
  %14 = or disjoint i64 %13, 1
  ret i64 %14
}